target datalayout = "e-m:e-p270:32:32-p271:32:32-p272:64:64-i64:64-i128:128-f80:128-n8:16:32:64-S128"
target triple = "x86_64-pc-linux-gnu"

%struct.Abc_Ntk_t_ = type { i32, i32, ptr, ptr, ptr, ptr, ptr, ptr, ptr, ptr, ptr, ptr, ptr, [11 x i32], i32, i32, i32, i32, ptr, i32, ptr, ptr, i32, i32, i32, double, i32, %struct.Vec_Int_t_, ptr, ptr, ptr, ptr, ptr, float, i32, ptr, ptr, ptr, ptr, ptr, ptr, ptr, ptr, ptr, ptr, ptr, ptr, ptr, ptr, ptr, ptr, ptr, ptr, ptr, ptr, ptr, ptr }
%struct.Vec_Int_t_ = type { i32, i32, ptr }
%struct.Vec_Ptr_t_ = type { i32, i32, ptr }
%struct.Abc_Obj_t_ = type { ptr, ptr, i32, i32, %struct.Vec_Int_t_, %struct.Vec_Int_t_, %union.anon, %union.anon.0 }
%union.anon = type { ptr }
%union.anon.0 = type { ptr }
%struct.Buf_Man_t_ = type { i32, i32, i32, ptr, ptr, ptr, ptr, ptr, ptr, ptr, i32, i32, i32, float, ptr, ptr, ptr, ptr, ptr, i32, i32, i32, i32, i32 }

; Function Attrs: inlinehint nounwind uwtable
define internal i32 @Abc_ObjId(ptr noundef %0) #2 {
  %2 = alloca ptr, align 8
  store ptr %0, ptr %2, align 8, !tbaa !26
  %3 = load ptr, ptr %2, align 8, !tbaa !26
  %4 = getelementptr inbounds nuw %struct.Abc_Obj_t_, ptr %3, i32 0, i32 2
  %5 = load i32, ptr %4, align 8, !tbaa !41
  ret i32 %5
}

; Function Attrs: inlinehint nounwind uwtable
define internal i32 @Abc_BufEdgeDelay(ptr noundef %0, ptr noundef %1, i32 noundef %2) #2 {
  %4 = alloca ptr, align 8
  %5 = alloca ptr, align 8
  %6 = alloca i32, align 4
  store ptr %0, ptr %4, align 8, !tbaa !81
  store ptr %1, ptr %5, align 8, !tbaa !26
  store i32 %2, ptr %6, align 4, !tbaa !8
  %7 = load ptr, ptr %4, align 8, !tbaa !81
  %8 = getelementptr inbounds nuw %struct.Buf_Man_t_, ptr %7, i32 0, i32 5
  %9 = load ptr, ptr %8, align 8, !tbaa !90
  %10 = load ptr, ptr %4, align 8, !tbaa !81
  %11 = getelementptr inbounds nuw %struct.Buf_Man_t_, ptr %10, i32 0, i32 4
  %12 = load ptr, ptr %11, align 8, !tbaa !84
  %13 = load ptr, ptr %5, align 8, !tbaa !26
  %14 = call i32 @Abc_ObjId(ptr noundef %13)
  %15 = call i32 @Vec_IntEntry(ptr noundef %12, i32 noundef %14)
  %16 = load i32, ptr %6, align 4, !tbaa !8
  %17 = add nsw i32 %15, %16
  %18 = call i32 @Vec_IntEntry(ptr noundef %9, i32 noundef %17)
  ret i32 %18
}

; Function Attrs: inlinehint nounwind uwtable
define internal i32 @Abc_BufNodeDep(ptr noundef %0, ptr noundef %1) #2 {
  %3 = alloca ptr, align 8
  %4 = alloca ptr, align 8
  store ptr %0, ptr %3, align 8, !tbaa !81
  store ptr %1, ptr %4, align 8, !tbaa !26
  %5 = load ptr, ptr %3, align 8, !tbaa !81
  %6 = getelementptr inbounds nuw %struct.Buf_Man_t_, ptr %5, i32 0, i32 7
  %7 = load ptr, ptr %6, align 8, !tbaa !92
  %8 = load ptr, ptr %4, align 8, !tbaa !26
  %9 = call i32 @Abc_ObjId(ptr noundef %8)
  %10 = call i32 @Vec_IntEntry(ptr noundef %7, i32 noundef %9)
  ret i32 %10
}

; Function Attrs: inlinehint nounwind uwtable
define internal i32 @Abc_BufNodeArr(ptr noundef %0, ptr noundef %1) #2 {
  %3 = alloca ptr, align 8
  %4 = alloca ptr, align 8
  store ptr %0, ptr %3, align 8, !tbaa !81
  store ptr %1, ptr %4, align 8, !tbaa !26
  %5 = load ptr, ptr %3, align 8, !tbaa !81
  %6 = getelementptr inbounds nuw %struct.Buf_Man_t_, ptr %5, i32 0, i32 6
  %7 = load ptr, ptr %6, align 8, !tbaa !89
  %8 = load ptr, ptr %4, align 8, !tbaa !26
  %9 = call i32 @Abc_ObjId(ptr noundef %8)
  %10 = call i32 @Vec_IntEntry(ptr noundef %7, i32 noundef %9)
  ret i32 %10
}

; Function Attrs: inlinehint nounwind uwtable
define internal ptr @Vec_PtrEntry(ptr noundef %0, i32 noundef %1) #2 {
  %3 = alloca ptr, align 8
  %4 = alloca i32, align 4
  store ptr %0, ptr %3, align 8, !tbaa !32
  store i32 %1, ptr %4, align 4, !tbaa !8
  %5 = load ptr, ptr %3, align 8, !tbaa !32
  %6 = getelementptr inbounds nuw %struct.Vec_Ptr_t_, ptr %5, i32 0, i32 2
  %7 = load ptr, ptr %6, align 8, !tbaa !38
  %8 = load i32, ptr %4, align 4, !tbaa !8
  %9 = sext i32 %8 to i64
  %10 = getelementptr inbounds ptr, ptr %7, i64 %9
  %11 = load ptr, ptr %10, align 8, !tbaa !40
  ret ptr %11
}

; Function Attrs: inlinehint nounwind uwtable
define internal i32 @Abc_BufEdgeSlack(ptr noundef %0, ptr noundef %1, ptr noundef %2) #2 {
  %4 = alloca ptr, align 8
  %5 = alloca ptr, align 8
  %6 = alloca ptr, align 8
  store ptr %0, ptr %4, align 8, !tbaa !81
  store ptr %1, ptr %5, align 8, !tbaa !26
  store ptr %2, ptr %6, align 8, !tbaa !26
  %7 = load ptr, ptr %4, align 8, !tbaa !81
  %8 = getelementptr inbounds nuw %struct.Buf_Man_t_, ptr %7, i32 0, i32 12
  %9 = load i32, ptr %8, align 8, !tbaa !93
  %10 = load ptr, ptr %4, align 8, !tbaa !81
  %11 = load ptr, ptr %5, align 8, !tbaa !26
  %12 = call i32 @Abc_BufNodeArr(ptr noundef %10, ptr noundef %11)
  %13 = sub nsw i32 %9, %12
  %14 = load ptr, ptr %4, align 8, !tbaa !81
  %15 = load ptr, ptr %6, align 8, !tbaa !26
  %16 = call i32 @Abc_BufNodeDep(ptr noundef %14, ptr noundef %15)
  %17 = sub nsw i32 %13, %16
  %18 = load ptr, ptr %4, align 8, !tbaa !81
  %19 = load ptr, ptr %6, align 8, !tbaa !26
  %20 = load ptr, ptr %6, align 8, !tbaa !26
  %21 = load ptr, ptr %5, align 8, !tbaa !26
  %22 = call i32 @Abc_NodeFindFanin(ptr noundef %20, ptr noundef %21)
  %23 = call i32 @Abc_BufEdgeDelay(ptr noundef %18, ptr noundef %19, i32 noundef %22)
  %24 = sub nsw i32 %17, %23
  ret i32 %24
}

; Function Attrs: inlinehint nounwind uwtable
define internal i32 @Vec_IntEntry(ptr noundef %0, i32 noundef %1) #2 {
  %3 = alloca ptr, align 8
  %4 = alloca i32, align 4
  store ptr %0, ptr %3, align 8, !tbaa !43
  store i32 %1, ptr %4, align 4, !tbaa !8
  %5 = load ptr, ptr %3, align 8, !tbaa !43
  %6 = getelementptr inbounds nuw %struct.Vec_Int_t_, ptr %5, i32 0, i32 2
  %7 = load ptr, ptr %6, align 8, !tbaa !48
  %8 = load i32, ptr %4, align 4, !tbaa !8
  %9 = sext i32 %8 to i64
  %10 = getelementptr inbounds i32, ptr %7, i64 %9
  %11 = load i32, ptr %10, align 4, !tbaa !8
  ret i32 %11
}

; Function Attrs: inlinehint nounwind uwtable
define internal i32 @Vec_IntSize(ptr noundef %0) #2 {
  %2 = alloca ptr, align 8
  store ptr %0, ptr %2, align 8, !tbaa !43
  %3 = load ptr, ptr %2, align 8, !tbaa !43
  %4 = getelementptr inbounds nuw %struct.Vec_Int_t_, ptr %3, i32 0, i32 1
  %5 = load i32, ptr %4, align 4, !tbaa !47
  ret i32 %5
}

; Function Attrs: inlinehint nounwind uwtable
define internal ptr @Abc_NtkObj(ptr noundef %0, i32 noundef %1) #2 {
  %3 = alloca ptr, align 8
  %4 = alloca i32, align 4
  store ptr %0, ptr %3, align 8, !tbaa !3
  store i32 %1, ptr %4, align 4, !tbaa !8
  %5 = load ptr, ptr %3, align 8, !tbaa !3
  %6 = getelementptr inbounds nuw %struct.Abc_Ntk_t_, ptr %5, i32 0, i32 5
  %7 = load ptr, ptr %6, align 8, !tbaa !10
  %8 = load i32, ptr %4, align 4, !tbaa !8
  %9 = call ptr @Vec_PtrEntry(ptr noundef %7, i32 noundef %8)
  ret ptr %9
}

; Function Attrs: nounwind uwtable
define i32 @Abc_BufComputeAverage(ptr noundef %0, i32 noundef %1, ptr noundef %2) #0 {
  %4 = alloca ptr, align 8
  %5 = alloca i32, align 4
  %6 = alloca ptr, align 8
  %7 = alloca ptr, align 8
  %8 = alloca ptr, align 8
  %9 = alloca i32, align 4
  %10 = alloca i32, align 4
  store ptr %0, ptr %4, align 8, !tbaa !81
  store i32 %1, ptr %5, align 4, !tbaa !8
  store ptr %2, ptr %6, align 8, !tbaa !43
  call void @llvm.lifetime.start.p0(i64 8, ptr %7) #9
  call void @llvm.lifetime.start.p0(i64 8, ptr %8) #9
  call void @llvm.lifetime.start.p0(i64 4, ptr %9) #9
  call void @llvm.lifetime.start.p0(i64 4, ptr %10) #9
  store i32 0, ptr %10, align 4, !tbaa !8
  %11 = load ptr, ptr %4, align 8, !tbaa !81
  %12 = getelementptr inbounds nuw %struct.Buf_Man_t_, ptr %11, i32 0, i32 3
  %13 = load ptr, ptr %12, align 8, !tbaa !94
  %14 = load i32, ptr %5, align 4, !tbaa !8
  %15 = call ptr @Abc_NtkObj(ptr noundef %13, i32 noundef %14)
  store ptr %15, ptr %7, align 8, !tbaa !26
  store i32 0, ptr %9, align 4, !tbaa !8
  br label %16

16:                                               ; preds = %43, %3
  %17 = load i32, ptr %9, align 4, !tbaa !8
  %18 = load ptr, ptr %6, align 8, !tbaa !43
  %19 = call i32 @Vec_IntSize(ptr noundef %18)
  %20 = icmp slt i32 %17, %19
  br i1 %20, label %21, label %29

21:                                               ; preds = %16
  %22 = load ptr, ptr %4, align 8, !tbaa !81
  %23 = getelementptr inbounds nuw %struct.Buf_Man_t_, ptr %22, i32 0, i32 3
  %24 = load ptr, ptr %23, align 8, !tbaa !94
  %25 = load ptr, ptr %6, align 8, !tbaa !43
  %26 = load i32, ptr %9, align 4, !tbaa !8
  %27 = call i32 @Vec_IntEntry(ptr noundef %25, i32 noundef %26)
  %28 = call ptr @Abc_NtkObj(ptr noundef %24, i32 noundef %27)
  store ptr %28, ptr %8, align 8, !tbaa !26
  br label %29

29:                                               ; preds = %21, %16
  %30 = phi i1 [ false, %16 ], [ true, %21 ]
  br i1 %30, label %31, label %46

31:                                               ; preds = %29
  %32 = load ptr, ptr %8, align 8, !tbaa !26
  %33 = icmp eq ptr %32, null
  br i1 %33, label %34, label %35

34:                                               ; preds = %31
  br label %42

35:                                               ; preds = %31
  %36 = load ptr, ptr %4, align 8, !tbaa !81
  %37 = load ptr, ptr %7, align 8, !tbaa !26
  %38 = load ptr, ptr %8, align 8, !tbaa !26
  %39 = call i32 @Abc_BufEdgeSlack(ptr noundef %36, ptr noundef %37, ptr noundef %38)
  %40 = load i32, ptr %10, align 4, !tbaa !8
  %41 = add nsw i32 %40, %39
  store i32 %41, ptr %10, align 4, !tbaa !8
  br label %42

42:                                               ; preds = %35, %34
  br label %43

43:                                               ; preds = %42
  %44 = load i32, ptr %9, align 4, !tbaa !8
  %45 = add nsw i32 %44, 1
  store i32 %45, ptr %9, align 4, !tbaa !8
  br label %16, !llvm.loop !150

46:                                               ; preds = %29
  %47 = load i32, ptr %10, align 4, !tbaa !8
  %48 = load ptr, ptr %6, align 8, !tbaa !43
  %49 = call i32 @Vec_IntSize(ptr noundef %48)
  %50 = sdiv i32 %47, %49
  call void @llvm.lifetime.end.p0(i64 4, ptr %10) #9
  call void @llvm.lifetime.end.p0(i64 4, ptr %9) #9
  call void @llvm.lifetime.end.p0(i64 8, ptr %8) #9
  call void @llvm.lifetime.end.p0(i64 8, ptr %7) #9
  ret i32 %50
}