; Function Attrs: nounwind uwtable
define i32 @Abc_BufComputeAverage(ptr noundef readonly captures(none) %0, i32 noundef %1, ptr noundef readonly captures(none) %2) local_unnamed_addr #2 {
  %4 = getelementptr inbounds nuw i8, ptr %0, i64 16
  %5 = load ptr, ptr %4, align 8, !tbaa !87
  %6 = getelementptr i8, ptr %5, i64 32
  %.val16 = load ptr, ptr %6, align 8, !tbaa !3
  %7 = getelementptr i8, ptr %.val16, i64 8
  %.val16.val = load ptr, ptr %7, align 8, !tbaa !26
  %8 = sext i32 %1 to i64
  %9 = getelementptr inbounds ptr, ptr %.val16.val, i64 %8
  %10 = load ptr, ptr %9, align 8, !tbaa !27
  %11 = getelementptr i8, ptr %2, i64 4
  %.val1924 = load i32, ptr %11, align 4, !tbaa !50
  %12 = icmp sgt i32 %.val1924, 0
  br i1 %12, label %.lr.ph, label %.critedge

.lr.ph:                                           ; preds = %3
  %13 = getelementptr i8, ptr %2, i64 8
  %14 = getelementptr inbounds nuw i8, ptr %0, i64 80
  %15 = getelementptr i8, ptr %0, i64 40
  %16 = getelementptr i8, ptr %10, i64 16
  %17 = getelementptr i8, ptr %0, i64 48
  %18 = getelementptr i8, ptr %0, i64 24
  %19 = getelementptr i8, ptr %0, i64 32
  br label %20

20:                                               ; preds = %.lr.ph, %54
  %.val1930 = phi i32 [ %.val1924, %.lr.ph ], [ %.val19, %54 ]
  %indvars.iv = phi i64 [ 0, %.lr.ph ], [ %indvars.iv.next, %54 ]
  %.026 = phi i32 [ 0, %.lr.ph ], [ %.1, %54 ]
  %21 = load ptr, ptr %4, align 8, !tbaa !87
  %.val17 = load ptr, ptr %13, align 8, !tbaa !45
  %22 = getelementptr inbounds nuw i32, ptr %.val17, i64 %indvars.iv
  %23 = load i32, ptr %22, align 4, !tbaa !33
  %24 = getelementptr i8, ptr %21, i64 32
  %.val = load ptr, ptr %24, align 8, !tbaa !3
  %25 = getelementptr i8, ptr %.val, i64 8
  %.val.val = load ptr, ptr %25, align 8, !tbaa !26
  %26 = sext i32 %23 to i64
  %27 = getelementptr inbounds ptr, ptr %.val.val, i64 %26
  %28 = load ptr, ptr %27, align 8, !tbaa !27
  %29 = icmp eq ptr %28, null
  br i1 %29, label %54, label %30

30:                                               ; preds = %20
  %31 = load i32, ptr %14, align 8, !tbaa !86
  %.val.i = load ptr, ptr %15, align 8, !tbaa !81
  %.val9.i = load i32, ptr %16, align 8, !tbaa !34
  %32 = getelementptr i8, ptr %.val.i, i64 8
  %.val.val.i = load ptr, ptr %32, align 8, !tbaa !45
  %33 = sext i32 %.val9.i to i64
  %34 = getelementptr inbounds i32, ptr %.val.val.i, i64 %33
  %35 = load i32, ptr %34, align 4, !tbaa !33
  %.val13.i = load ptr, ptr %17, align 8, !tbaa !84
  %36 = getelementptr i8, ptr %28, i64 16
  %.val14.i = load i32, ptr %36, align 8, !tbaa !34
  %37 = getelementptr i8, ptr %.val13.i, i64 8
  %.val13.val.i = load ptr, ptr %37, align 8, !tbaa !45
  %38 = sext i32 %.val14.i to i64
  %39 = getelementptr inbounds i32, ptr %.val13.val.i, i64 %38
  %40 = load i32, ptr %39, align 4, !tbaa !33
  %41 = tail call i32 @Abc_NodeFindFanin(ptr noundef nonnull %28, ptr noundef %10) #17
  %.val10.i = load ptr, ptr %18, align 8, !tbaa !77
  %.val11.i = load ptr, ptr %19, align 8, !tbaa !82
  %.val12.i = load i32, ptr %36, align 8, !tbaa !34
  %42 = getelementptr i8, ptr %.val10.i, i64 8
  %.val10.val.i = load ptr, ptr %42, align 8, !tbaa !45
  %43 = getelementptr i8, ptr %.val11.i, i64 8
  %.val11.val.i = load ptr, ptr %43, align 8, !tbaa !45
  %44 = sext i32 %.val12.i to i64
  %45 = getelementptr inbounds i32, ptr %.val10.val.i, i64 %44
  %46 = load i32, ptr %45, align 4, !tbaa !33
  %47 = add nsw i32 %46, %41
  %48 = sext i32 %47 to i64
  %49 = getelementptr inbounds i32, ptr %.val11.val.i, i64 %48
  %50 = load i32, ptr %49, align 4, !tbaa !33
  %.neg21 = add i32 %31, %.026
  %51 = add i32 %35, %40
  %52 = add i32 %51, %50
  %53 = sub i32 %.neg21, %52
  %.val19.pre = load i32, ptr %11, align 4, !tbaa !50
  br label %54

54:                                               ; preds = %30, %20
  %.val19 = phi i32 [ %.val1930, %20 ], [ %.val19.pre, %30 ]
  %.1 = phi i32 [ %.026, %20 ], [ %53, %30 ]
  %indvars.iv.next = add nuw nsw i64 %indvars.iv, 1
  %55 = sext i32 %.val19 to i64
  %56 = icmp slt i64 %indvars.iv.next, %55
  br i1 %56, label %20, label %.critedge, !llvm.loop !141

.critedge:                                        ; preds = %54, %3
  %.0.lcssa = phi i32 [ 0, %3 ], [ %.1, %54 ]
  %.val19.lcssa = phi i32 [ %.val1924, %3 ], [ %.val19, %54 ]
  %57 = sdiv i32 %.0.lcssa, %.val19.lcssa
  ret i32 %57
}